; Function Attrs: mustprogress uwtable
define internal fastcc void @_ZL18display_statisticsv() unnamed_addr #4 personality ptr @__gxx_personality_v0 {
entry:
  %0 = load ptr, ptr @_ZL17display_stats_mux, align 8
  %call1.i.i.i = tail call noundef i32 @pthread_mutex_lock(ptr noundef nonnull %0) #19
  %tobool.not.i.i = icmp eq i32 %call1.i.i.i, 0
  br i1 %tobool.not.i.i, label %_ZNSt10lock_guardISt5mutexEC2ERS0_.exit, label %if.then.i.i

if.then.i.i:                                      ; preds = %entry
  tail call void @_ZSt20__throw_system_errori(i32 noundef %call1.i.i.i) #22
  unreachable

_ZNSt10lock_guardISt5mutexEC2ERS0_.exit:          ; preds = %entry
  %call = tail call i64 @clock() #19
  %1 = load ptr, ptr @_ZL13g_cmd_context, align 8
  %tobool.not = icmp eq ptr %1, null
  br i1 %tobool.not, label %if.end10, label %land.lhs.true

land.lhs.true:                                    ; preds = %_ZNSt10lock_guardISt5mutexEC2ERS0_.exit
  %2 = load i8, ptr @g_display_statistics, align 1
  %3 = and i8 %2, 1
  %tobool1.not = icmp eq i8 %3, 0
  br i1 %tobool1.not, label %if.end10, label %if.then3

if.then3:                                         ; preds = %land.lhs.true
  %m_regular.i = getelementptr inbounds i8, ptr %1, i64 336
  invoke void @_ZN10stream_ref3setEPKc(ptr noundef nonnull align 8 dereferenceable(81) %m_regular.i, ptr noundef nonnull @.str.19)
          to label %invoke.cont unwind label %lpad

invoke.cont:                                      ; preds = %if.then3
  %4 = load ptr, ptr @_ZL13g_cmd_context, align 8
  %conv = sitofp i64 %call to double
  %5 = load i64, ptr @_ZL12g_start_time, align 8
  %conv4 = sitofp i64 %5 to double
  %sub = fsub double %conv, %conv4
  %div = fdiv double %sub, 1.000000e+06
  invoke void @_ZN11cmd_context18display_statisticsEbd(ptr noundef nonnull align 8 dereferenceable(872) %4, i1 noundef zeroext true, double noundef %div)
          to label %if.end unwind label %lpad

lpad:                                             ; preds = %if.then3, %invoke.cont6, %if.end, %invoke.cont
  %6 = landingpad { ptr, i32 }
          cleanup
  %call1.i.i.i1 = tail call noundef i32 @pthread_mutex_unlock(ptr noundef nonnull %0) #19
  resume { ptr, i32 } %6

if.end:                                           ; preds = %invoke.cont
  %call7 = invoke noundef nonnull align 8 dereferenceable(8) ptr @_ZNSo5flushEv(ptr noundef nonnull align 8 dereferenceable(8) @_ZSt4cout)
          to label %invoke.cont6 unwind label %lpad

invoke.cont6:                                     ; preds = %if.end
  %call9 = invoke noundef nonnull align 8 dereferenceable(8) ptr @_ZNSo5flushEv(ptr noundef nonnull align 8 dereferenceable(8) @_ZSt4cerr)
          to label %if.end10 unwind label %lpad

if.end10:                                         ; preds = %invoke.cont6, %land.lhs.true, %_ZNSt10lock_guardISt5mutexEC2ERS0_.exit
  %call1.i.i.i2 = tail call noundef i32 @pthread_mutex_unlock(ptr noundef nonnull %0) #19
  ret void
}